target datalayout = "e-m:e-p270:32:32-p271:32:32-p272:64:64-i64:64-i128:128-f80:128-n8:16:32:64-S128"
target triple = "x86_64-pc-linux-gnu"

; Function Attrs: mustprogress nounwind uwtable
define hidden noundef double @_Z7sigmoidd(double noundef %0) #0 {
  %2 = alloca double, align 8
  store double %0, ptr %2, align 8
  %3 = load double, ptr %2, align 8
  %4 = fmul contract double 5.000000e-01, %3
  %5 = load double, ptr %2, align 8
  %6 = load double, ptr %2, align 8
  %7 = fmul contract double %5, %6
  %8 = fadd contract double 1.000000e+00, %7
  %9 = call contract double @llvm.sqrt.f64(double %8)
  %10 = fdiv contract double %4, %9
  %11 = fadd contract double %10, 5.000000e-01
  ret double %11
}