; Function Attrs: mustprogress nofree norecurse nosync nounwind willreturn memory(none) uwtable
define hidden noundef double @_Z7sigmoidd(double noundef %0) local_unnamed_addr #4 {
  %2 = fmul contract double %0, 5.000000e-01
  %3 = fmul contract double %0, %0
  %4 = fadd contract double %3, 1.000000e+00
  %5 = tail call contract double @llvm.sqrt.f64(double %4)
  %6 = fdiv contract double %2, %5
  %7 = fadd contract double %6, 5.000000e-01
  ret double %7
}